; Function Attrs: mustprogress nounwind uwtable
define dso_local void @_ZN4node22CommonEnvironmentSetupC2EPNS_20MultiIsolatePlatformEPSt6vectorINSt7__cxx1112basic_stringIcSt11char_traitsIcESaIcEEESaIS9_EESt8functionIFPNS_11EnvironmentEPKS0_EE(ptr noundef nonnull align 8 dereferenceable(8) %this, ptr noundef %platform, ptr noundef %errors, ptr noundef %make_env) unnamed_addr #3 align 2 {
entry:
  %agg.tmp = alloca %"class.std::function.256", align 8
  %_M_manager.i.i.i = getelementptr inbounds i8, ptr %make_env, i64 16
  call void @llvm.memset.p0.i64(ptr noundef nonnull align 8 dereferenceable(32) %agg.tmp, i8 0, i64 32, i1 false)
  %0 = load ptr, ptr %_M_manager.i.i.i, align 8
  %tobool.not.i.i.not.i = icmp eq ptr %0, null
  br i1 %tobool.not.i.i.not.i, label %_ZNSt8functionIFPN4node11EnvironmentEPKNS0_22CommonEnvironmentSetupEEEC2ERKS7_.exit, label %if.then.i

if.then.i:                                        ; preds = %entry
  %_M_manager.i.i = getelementptr inbounds i8, ptr %agg.tmp, i64 16
  %call3.i = call noundef zeroext i1 %0(ptr noundef nonnull align 8 dereferenceable(16) %agg.tmp, ptr noundef nonnull align 8 dereferenceable(16) %make_env, i32 noundef 2) #22
  %1 = load <2 x ptr>, ptr %_M_manager.i.i.i, align 8
  store <2 x ptr> %1, ptr %_M_manager.i.i, align 8
  br label %_ZNSt8functionIFPN4node11EnvironmentEPKNS0_22CommonEnvironmentSetupEEEC2ERKS7_.exit

_ZNSt8functionIFPN4node11EnvironmentEPKNS0_22CommonEnvironmentSetupEEEC2ERKS7_.exit: ; preds = %entry, %if.then.i
  call void @_ZN4node22CommonEnvironmentSetupC2EPNS_20MultiIsolatePlatformEPSt6vectorINSt7__cxx1112basic_stringIcSt11char_traitsIcESaIcEEESaIS9_EEPKNS_20EmbedderSnapshotDataEjSt8functionIFPNS_11EnvironmentEPKS0_EEPKNS_14SnapshotConfigE(ptr noundef nonnull align 8 dereferenceable(8) %this, ptr noundef %platform, ptr noundef %errors, ptr noundef null, i32 noundef 0, ptr noundef nonnull %agg.tmp, ptr noundef null)
  %_M_manager.i.i1 = getelementptr inbounds i8, ptr %agg.tmp, i64 16
  %2 = load ptr, ptr %_M_manager.i.i1, align 8
  %tobool.not.i.i = icmp eq ptr %2, null
  br i1 %tobool.not.i.i, label %_ZNSt8functionIFPN4node11EnvironmentEPKNS0_22CommonEnvironmentSetupEEED2Ev.exit, label %if.then.i.i

if.then.i.i:                                      ; preds = %_ZNSt8functionIFPN4node11EnvironmentEPKNS0_22CommonEnvironmentSetupEEEC2ERKS7_.exit
  %call.i.i = call noundef zeroext i1 %2(ptr noundef nonnull align 8 dereferenceable(16) %agg.tmp, ptr noundef nonnull align 8 dereferenceable(16) %agg.tmp, i32 noundef 3) #22
  br label %_ZNSt8functionIFPN4node11EnvironmentEPKNS0_22CommonEnvironmentSetupEEED2Ev.exit

_ZNSt8functionIFPN4node11EnvironmentEPKNS0_22CommonEnvironmentSetupEEED2Ev.exit: ; preds = %_ZNSt8functionIFPN4node11EnvironmentEPKNS0_22CommonEnvironmentSetupEEEC2ERKS7_.exit, %if.then.i.i
  ret void
}